target datalayout = "e-m:e-p270:32:32-p271:32:32-p272:64:64-i64:64-i128:128-f80:128-n8:16:32:64-S128"
target triple = "x86_64-pc-linux-gnu"

%struct.Emb_Man_t_ = type { ptr, ptr, ptr, i32, i32, i32, ptr, i32, i32, ptr, i32, i32, ptr, ptr, ptr, ptr }

; Function Attrs: inlinehint nounwind uwtable
define internal ptr @Emb_ManSol(ptr noundef %0, i32 noundef %1) #4 {
  %3 = alloca ptr, align 8
  %4 = alloca i32, align 4
  store ptr %0, ptr %3, align 8, !tbaa !15
  store i32 %1, ptr %4, align 4, !tbaa !12
  %5 = load ptr, ptr %3, align 8, !tbaa !15
  %6 = getelementptr inbounds nuw %struct.Emb_Man_t_, ptr %5, i32 0, i32 14
  %7 = load ptr, ptr %6, align 8, !tbaa !88
  %8 = load i32, ptr %4, align 4, !tbaa !12
  %9 = load ptr, ptr %3, align 8, !tbaa !15
  %10 = getelementptr inbounds nuw %struct.Emb_Man_t_, ptr %9, i32 0, i32 3
  %11 = load i32, ptr %10, align 8, !tbaa !32
  %12 = mul nsw i32 %8, %11
  %13 = sext i32 %12 to i64
  %14 = getelementptr inbounds float, ptr %7, i64 %13
  ret ptr %14
}

; Function Attrs: inlinehint nounwind uwtable
define internal ptr @Emb_ManVec(ptr noundef %0, i32 noundef %1) #4 {
  %3 = alloca ptr, align 8
  %4 = alloca i32, align 4
  store ptr %0, ptr %3, align 8, !tbaa !15
  store i32 %1, ptr %4, align 4, !tbaa !12
  %5 = load ptr, ptr %3, align 8, !tbaa !15
  %6 = getelementptr inbounds nuw %struct.Emb_Man_t_, ptr %5, i32 0, i32 9
  %7 = load ptr, ptr %6, align 8, !tbaa !87
  %8 = load i32, ptr %4, align 4, !tbaa !12
  %9 = load ptr, ptr %3, align 8, !tbaa !15
  %10 = getelementptr inbounds nuw %struct.Emb_Man_t_, ptr %9, i32 0, i32 3
  %11 = load i32, ptr %10, align 8, !tbaa !32
  %12 = mul nsw i32 %8, %11
  %13 = sext i32 %12 to i64
  %14 = getelementptr inbounds float, ptr %7, i64 %13
  ret ptr %14
}

; Function Attrs: nounwind uwtable
define void @Emb_ManComputeSolutions(ptr noundef %0, i32 noundef %1, i32 noundef %2) #0 {
  %4 = alloca ptr, align 8
  %5 = alloca i32, align 4
  %6 = alloca i32, align 4
  %7 = alloca ptr, align 8
  %8 = alloca ptr, align 8
  %9 = alloca i32, align 4
  %10 = alloca i32, align 4
  %11 = alloca i32, align 4
  store ptr %0, ptr %4, align 8, !tbaa !15
  store i32 %1, ptr %5, align 4, !tbaa !12
  store i32 %2, ptr %6, align 4, !tbaa !12
  call void @llvm.lifetime.start.p0(i64 8, ptr %7) #12
  call void @llvm.lifetime.start.p0(i64 8, ptr %8) #12
  call void @llvm.lifetime.start.p0(i64 4, ptr %9) #12
  call void @llvm.lifetime.start.p0(i64 4, ptr %10) #12
  call void @llvm.lifetime.start.p0(i64 4, ptr %11) #12
  %12 = load ptr, ptr %4, align 8, !tbaa !15
  %13 = getelementptr inbounds nuw %struct.Emb_Man_t_, ptr %12, i32 0, i32 3
  %14 = load i32, ptr %13, align 8, !tbaa !32
  %15 = load i32, ptr %6, align 4, !tbaa !12
  %16 = mul nsw i32 %14, %15
  %17 = sext i32 %16 to i64
  %18 = call noalias ptr @calloc(i64 noundef %17, i64 noundef 4) #13
  %19 = load ptr, ptr %4, align 8, !tbaa !15
  %20 = getelementptr inbounds nuw %struct.Emb_Man_t_, ptr %19, i32 0, i32 14
  store ptr %18, ptr %20, align 8, !tbaa !88
  store i32 0, ptr %9, align 4, !tbaa !12
  br label %21

21:                                               ; preds = %74, %3
  %22 = load i32, ptr %9, align 4, !tbaa !12
  %23 = load i32, ptr %5, align 4, !tbaa !12
  %24 = icmp slt i32 %22, %23
  br i1 %24, label %25, label %77

25:                                               ; preds = %21
  %26 = load ptr, ptr %4, align 8, !tbaa !15
  %27 = load i32, ptr %9, align 4, !tbaa !12
  %28 = call ptr @Emb_ManVec(ptr noundef %26, i32 noundef %27)
  store ptr %28, ptr %7, align 8, !tbaa !107
  store i32 0, ptr %10, align 4, !tbaa !12
  br label %29

29:                                               ; preds = %70, %25
  %30 = load i32, ptr %10, align 4, !tbaa !12
  %31 = load i32, ptr %6, align 4, !tbaa !12
  %32 = icmp slt i32 %30, %31
  br i1 %32, label %33, label %73

33:                                               ; preds = %29
  %34 = load ptr, ptr %4, align 8, !tbaa !15
  %35 = load i32, ptr %10, align 4, !tbaa !12
  %36 = call ptr @Emb_ManSol(ptr noundef %34, i32 noundef %35)
  store ptr %36, ptr %8, align 8, !tbaa !107
  store i32 0, ptr %11, align 4, !tbaa !12
  br label %37

37:                                               ; preds = %66, %33
  %38 = load i32, ptr %11, align 4, !tbaa !12
  %39 = load ptr, ptr %4, align 8, !tbaa !15
  %40 = getelementptr inbounds nuw %struct.Emb_Man_t_, ptr %39, i32 0, i32 3
  %41 = load i32, ptr %40, align 8, !tbaa !32
  %42 = icmp slt i32 %38, %41
  br i1 %42, label %43, label %69

43:                                               ; preds = %37
  %44 = load ptr, ptr %7, align 8, !tbaa !107
  %45 = load i32, ptr %11, align 4, !tbaa !12
  %46 = sext i32 %45 to i64
  %47 = getelementptr inbounds float, ptr %44, i64 %46
  %48 = load float, ptr %47, align 4, !tbaa !110
  %49 = load ptr, ptr %4, align 8, !tbaa !15
  %50 = getelementptr inbounds nuw %struct.Emb_Man_t_, ptr %49, i32 0, i32 13
  %51 = load ptr, ptr %50, align 8, !tbaa !90
  %52 = load i32, ptr %10, align 4, !tbaa !12
  %53 = sext i32 %52 to i64
  %54 = getelementptr inbounds ptr, ptr %51, i64 %53
  %55 = load ptr, ptr %54, align 8, !tbaa !107
  %56 = load i32, ptr %9, align 4, !tbaa !12
  %57 = sext i32 %56 to i64
  %58 = getelementptr inbounds float, ptr %55, i64 %57
  %59 = load float, ptr %58, align 4, !tbaa !110
  %60 = load ptr, ptr %8, align 8, !tbaa !107
  %61 = load i32, ptr %11, align 4, !tbaa !12
  %62 = sext i32 %61 to i64
  %63 = getelementptr inbounds float, ptr %60, i64 %62
  %64 = load float, ptr %63, align 4, !tbaa !110
  %65 = call float @llvm.fmuladd.f32(float %48, float %59, float %64)
  store float %65, ptr %63, align 4, !tbaa !110
  br label %66

66:                                               ; preds = %43
  %67 = load i32, ptr %11, align 4, !tbaa !12
  %68 = add nsw i32 %67, 1
  store i32 %68, ptr %11, align 4, !tbaa !12
  br label %37, !llvm.loop !142

69:                                               ; preds = %37
  br label %70

70:                                               ; preds = %69
  %71 = load i32, ptr %10, align 4, !tbaa !12
  %72 = add nsw i32 %71, 1
  store i32 %72, ptr %10, align 4, !tbaa !12
  br label %29, !llvm.loop !143

73:                                               ; preds = %29
  br label %74

74:                                               ; preds = %73
  %75 = load i32, ptr %9, align 4, !tbaa !12
  %76 = add nsw i32 %75, 1
  store i32 %76, ptr %9, align 4, !tbaa !12
  br label %21, !llvm.loop !144

77:                                               ; preds = %21
  call void @llvm.lifetime.end.p0(i64 4, ptr %11) #12
  call void @llvm.lifetime.end.p0(i64 4, ptr %10) #12
  call void @llvm.lifetime.end.p0(i64 4, ptr %9) #12
  call void @llvm.lifetime.end.p0(i64 8, ptr %8) #12
  call void @llvm.lifetime.end.p0(i64 8, ptr %7) #12
  ret void
}