; Function Attrs: nofree nounwind uwtable
define void @Emb_ManComputeSolutions(ptr noundef captures(none) initializes((88, 96)) %0, i32 noundef %1, i32 noundef %2) local_unnamed_addr #8 {
  %4 = getelementptr inbounds nuw i8, ptr %0, i64 24
  %5 = load i32, ptr %4, align 8, !tbaa !53
  %6 = mul nsw i32 %5, %2
  %7 = sext i32 %6 to i64
  %8 = tail call noalias ptr @calloc(i64 noundef %7, i64 noundef 4) #28
  %9 = getelementptr inbounds nuw i8, ptr %0, i64 88
  store ptr %8, ptr %9, align 8, !tbaa !80
  %10 = icmp sgt i32 %1, 0
  br i1 %10, label %.lr.ph, label %._crit_edge

.lr.ph:                                           ; preds = %3
  %11 = getelementptr i8, ptr %0, i64 56
  %.val24 = load ptr, ptr %11, align 8, !tbaa !79
  %12 = icmp sgt i32 %2, 0
  %13 = icmp sgt i32 %5, 0
  %or.cond = and i1 %12, %13
  br i1 %or.cond, label %.lr.ph.split.us.split.us, label %._crit_edge

.lr.ph.split.us.split.us:                         ; preds = %.lr.ph
  %14 = getelementptr inbounds nuw i8, ptr %0, i64 80
  %15 = load ptr, ptr %14, align 8, !tbaa !82
  %16 = zext nneg i32 %5 to i64
  %wide.trip.count47 = zext nneg i32 %1 to i64
  %wide.trip.count42 = zext nneg i32 %2 to i64
  br label %.lr.ph30.us.us

.lr.ph30.us.us:                                   ; preds = %._crit_edge31.split.us.us.us, %.lr.ph.split.us.split.us
  %indvars.iv44 = phi i64 [ %indvars.iv.next45, %._crit_edge31.split.us.us.us ], [ 0, %.lr.ph.split.us.split.us ]
  %17 = mul nuw nsw i64 %indvars.iv44, %16
  %18 = getelementptr inbounds nuw float, ptr %.val24, i64 %17
  br label %.lr.ph.us.us.us

.lr.ph.us.us.us:                                  ; preds = %._crit_edge.us.us.us, %.lr.ph30.us.us
  %indvars.iv39 = phi i64 [ %indvars.iv.next40, %._crit_edge.us.us.us ], [ 0, %.lr.ph30.us.us ]
  %19 = mul nuw nsw i64 %indvars.iv39, %16
  %20 = getelementptr inbounds nuw float, ptr %8, i64 %19
  %21 = getelementptr inbounds nuw ptr, ptr %15, i64 %indvars.iv39
  %22 = load ptr, ptr %21, align 8, !tbaa !117
  %23 = getelementptr inbounds nuw float, ptr %22, i64 %indvars.iv44
  br label %24

24:                                               ; preds = %24, %.lr.ph.us.us.us
  %indvars.iv = phi i64 [ %indvars.iv.next, %24 ], [ 0, %.lr.ph.us.us.us ]
  %25 = getelementptr inbounds nuw float, ptr %18, i64 %indvars.iv
  %26 = load float, ptr %25, align 4, !tbaa !106
  %27 = load float, ptr %23, align 4, !tbaa !106
  %28 = getelementptr inbounds nuw float, ptr %20, i64 %indvars.iv
  %29 = load float, ptr %28, align 4, !tbaa !106
  %30 = tail call float @llvm.fmuladd.f32(float %26, float %27, float %29)
  store float %30, ptr %28, align 4, !tbaa !106
  %indvars.iv.next = add nuw nsw i64 %indvars.iv, 1
  %exitcond.not = icmp eq i64 %indvars.iv.next, %16
  br i1 %exitcond.not, label %._crit_edge.us.us.us, label %24, !llvm.loop !135

._crit_edge.us.us.us:                             ; preds = %24
  %indvars.iv.next40 = add nuw nsw i64 %indvars.iv39, 1
  %exitcond43.not = icmp eq i64 %indvars.iv.next40, %wide.trip.count42
  br i1 %exitcond43.not, label %._crit_edge31.split.us.us.us, label %.lr.ph.us.us.us, !llvm.loop !136

._crit_edge31.split.us.us.us:                     ; preds = %._crit_edge.us.us.us
  %indvars.iv.next45 = add nuw nsw i64 %indvars.iv44, 1
  %exitcond48.not = icmp eq i64 %indvars.iv.next45, %wide.trip.count47
  br i1 %exitcond48.not, label %._crit_edge, label %.lr.ph30.us.us, !llvm.loop !137

._crit_edge:                                      ; preds = %._crit_edge31.split.us.us.us, %.lr.ph, %3
  ret void
}